EXPORTS
    _ZN9sync_objs14barrier_threadC1Ey @1
    _ZN9sync_objs14barrier_threadC2Ey @2
    _ZN9sync_objs14barrier_threadD1Ev @3
    _ZN9sync_objs14barrier_threadD2Ev @4
    _ZN9sync_objs15barrier_processC1EPKc @5
    _ZN9sync_objs15barrier_processC1EPKcy @6
    _ZN9sync_objs15barrier_processC2EPKc @7
    _ZN9sync_objs15barrier_processC2EPKcy @8
    _ZN9sync_objs15barrier_processD1Ev @9
    _ZN9sync_objs15barrier_processD2Ev @10
    _ZN9sync_objs15rotation_threadC1Ey @11
    _ZN9sync_objs15rotation_threadC2Ey @12
    _ZN9sync_objs15rotation_threadD1Ev @13
    _ZN9sync_objs15rotation_threadD2Ev @14
    _ZN9sync_objs16rotation_processC1EPKc @15
    _ZN9sync_objs16rotation_processC1EPKcy @16
    _ZN9sync_objs16rotation_processC2EPKc @17
    _ZN9sync_objs16rotation_processC2EPKcy @18
    _ZN9sync_objs16rotation_processD1Ev @19
    _ZN9sync_objs16rotation_processD2Ev @20
    _ZN9sync_objs25critical_section_2_thread12enter_regionEi @21
    _ZN9sync_objs25critical_section_2_thread12leave_regionEi @22
    _ZN9sync_objs25critical_section_2_threadC1Ev @23
    _ZN9sync_objs25critical_section_2_threadC2Ev @24
    _ZN9sync_objs25critical_section_2_threadD1Ev @25
    _ZN9sync_objs25critical_section_2_threadD2Ev @26
    _ZN9sync_objs25critical_section_n_thread12enter_regionEi @27
    _ZN9sync_objs25critical_section_n_thread12leave_regionEi @28
    _ZN9sync_objs25critical_section_n_threadC1Ey @29
    _ZN9sync_objs25critical_section_n_threadC2Ey @30
    _ZN9sync_objs25critical_section_n_threadD1Ev @31
    _ZN9sync_objs25critical_section_n_threadD2Ev @32
    _ZN9sync_objs26critical_section_n_process12enter_regionEy @33
    _ZN9sync_objs26critical_section_n_process12leave_regionEy @34
    _ZN9sync_objs26critical_section_n_processC1EPKc @35
    _ZN9sync_objs26critical_section_n_processC1EPKcy @36
    _ZN9sync_objs26critical_section_n_processC2EPKc @37
    _ZN9sync_objs26critical_section_n_processC2EPKcy @38
    _ZN9sync_objs26critical_section_n_processD1Ev @39
    _ZN9sync_objs26critical_section_n_processD2Ev @40
    _ZN9sync_objs7barrier4waitEy @41
    _ZN9sync_objs7barrier5resetEv @42
    _ZN9sync_objs8rotation12enter_regionEy @43
    _ZN9sync_objs8rotation12leave_regionEv @44

IMPORTS

    error.dll._Z5ErrorPKc
    error.dll._Z6StatusmPKc
